; Function Attrs: mustprogress nofree norecurse nosync nounwind willreturn memory(argmem: readwrite) uwtable
define internal noundef zeroext i1 @"_ZNSt17_Function_handlerIFbvEZL16SpeedRandomChunkNSt7__cxx1112basic_stringIcSt11char_traitsIcESaIcEEEmE3$_0E10_M_managerERSt9_Any_dataRKS9_St18_Manager_operation"(ptr noundef nonnull writeonly align 8 captures(none) dereferenceable(16) %0, ptr noundef nonnull align 8 dereferenceable(16) %1, i32 noundef %2) #12 align 2 personality ptr @__gxx_personality_v0 {
  switch i32 %2, label %"_ZNSt14_Function_base13_Base_managerIZL16SpeedRandomChunkNSt7__cxx1112basic_stringIcSt11char_traitsIcESaIcEEEmE3$_0E10_M_managerERSt9_Any_dataRKS9_St18_Manager_operation.exit" [
    i32 0, label %4
    i32 1, label %5
    i32 2, label %6
  ]

4:                                                ; preds = %3
  store ptr @"_ZTIZL16SpeedRandomChunkNSt7__cxx1112basic_stringIcSt11char_traitsIcESaIcEEEmE3$_0", ptr %0, align 8, !tbaa !80
  br label %"_ZNSt14_Function_base13_Base_managerIZL16SpeedRandomChunkNSt7__cxx1112basic_stringIcSt11char_traitsIcESaIcEEEmE3$_0E10_M_managerERSt9_Any_dataRKS9_St18_Manager_operation.exit"

5:                                                ; preds = %3
  store ptr %1, ptr %0, align 8, !tbaa !31
  br label %"_ZNSt14_Function_base13_Base_managerIZL16SpeedRandomChunkNSt7__cxx1112basic_stringIcSt11char_traitsIcESaIcEEEmE3$_0E10_M_managerERSt9_Any_dataRKS9_St18_Manager_operation.exit"

6:                                                ; preds = %3
  tail call void @llvm.memcpy.p0.p0.i64(ptr noundef nonnull align 8 dereferenceable(16) %0, ptr noundef nonnull readonly align 8 dereferenceable(16) %1, i64 16, i1 false), !tbaa.struct !118
  br label %"_ZNSt14_Function_base13_Base_managerIZL16SpeedRandomChunkNSt7__cxx1112basic_stringIcSt11char_traitsIcESaIcEEEmE3$_0E10_M_managerERSt9_Any_dataRKS9_St18_Manager_operation.exit"

"_ZNSt14_Function_base13_Base_managerIZL16SpeedRandomChunkNSt7__cxx1112basic_stringIcSt11char_traitsIcESaIcEEEmE3$_0E10_M_managerERSt9_Any_dataRKS9_St18_Manager_operation.exit": ; preds = %3, %6, %5, %4
  ret i1 false
}